Certificate:
    Data:
        Version: 3 (0x2)
        Serial Number: 1 (0x1)
    Signature Algorithm: md5WithRSAEncryption
        Issuer: C=GR, ST=Attica, L=Athens, O=Unipi, OU=Informatics Department, CN=Unipi CA/emailAddress=p15094@unipi.gr
        Validity
            Not Before: Nov 17 19:42:19 2018 GMT
            Not After : Nov 17 19:42:19 2019 GMT
        Subject: C=GR, ST=Attica, L=Athens, O=Unipi, OU=Lab test client, CN=Chrysa Barbini/emailAddress=chrysa.ba@gmail.com
        Subject Public Key Info:
            Public Key Algorithm: rsaEncryption
                Public-Key: (1024 bit)
                Modulus:
                    00:a8:3c:8d:52:39:97:7a:99:98:4f:96:ac:42:0e:
                    0e:ae:64:22:4b:06:70:75:32:7f:67:75:e6:7b:2d:
                    5b:c5:b5:74:bd:2b:e4:1c:a6:a3:02:6b:a6:de:17:
                    0a:92:5c:c2:e5:82:9b:4f:d1:3e:aa:0a:03:59:ea:
                    09:61:89:8f:df:3a:c0:46:1e:e3:90:e3:0d:d3:ad:
                    22:15:a8:8d:4f:33:b0:4a:16:7c:5a:d8:9c:0c:bf:
                    8a:b5:e4:12:f4:97:13:31:a6:8b:3a:0f:6c:07:c1:
                    38:6e:10:4e:bb:7d:95:41:99:1e:11:50:b3:95:07:
                    e6:74:b6:ad:73:dc:5a:a6:57
                Exponent: 65537 (0x10001)
        X509v3 extensions:
            X509v3 Subject Key Identifier: 
                D9:F5:C1:A1:25:4A:2D:29:47:F4:35:9A:B5:9D:06:55:81:2A:07:C5
            X509v3 Authority Key Identifier: 
                keyid:CC:64:22:CA:EB:1E:4B:8B:F0:C5:F7:4A:6C:B5:A6:0A:48:F2:E9:F0
                DirName:/C=GR/ST=Attica/L=Athens/O=Unipi/OU=Informatics Department/CN=Unipi CA/emailAddress=p15094@unipi.gr
                serial:82:24:6E:FC:A9:8E:35:4F

            X509v3 Basic Constraints: 
                CA:TRUE
            X509v3 Key Usage: 
                Certificate Sign, CRL Sign
            Netscape Cert Type: 
                SSL CA, S/MIME CA
    Signature Algorithm: md5WithRSAEncryption
         1b:0b:88:a1:33:3a:b1:ed:c0:58:e1:cf:3a:bd:9d:00:20:5e:
         b0:d4:e7:9a:ab:74:93:20:76:d7:30:c4:f6:a5:cf:74:4a:0f:
         98:9f:de:de:cb:0a:01:8c:fd:d6:fa:57:f5:5b:c2:0d:d5:fb:
         23:91:4b:f6:47:e2:bc:f9:c7:ee:fb:9b:40:a4:80:de:af:f8:
         b6:9f:d2:4b:0b:18:50:eb:90:39:91:3e:94:2c:91:91:71:5a:
         0b:89:57:33:ef:df:c3:91:02:87:ee:f5:ce:04:65:d7:5a:2a:
         a2:90:60:6b:0e:59:cb:35:b0:71:44:58:7e:a2:65:d8:4c:c6:
         fb:e9:21:90:dc:53:d6:21:df:4d:68:c4:1a:df:df:10:43:de:
         39:b9:e8:8b:8a:b4:d6:4e:10:78:87:7b:b7:01:3b:78:a2:9d:
         7c:94:00:20:fd:0d:09:f5:3a:a7:fa:3d:cf:86:54:09:e4:35:
         3f:3a:db:c3:31:57:aa:1d:e6:e5:c5:22:4d:b9:93:bb:6a:52:
         3e:88:c2:99:76:90:ce:6b:6d:88:72:74:1d:fe:2a:85:ec:a1:
         4e:ee:0b:9f:83:f8:ee:de:17:41:8d:05:57:1d:5d:e8:40:04:
         ab:a7:67:47:5b:50:f8:30:25:e7:3f:b3:4e:5a:b3:84:da:b4:
         dd:48:67:c5
-----BEGIN CERTIFICATE-----
MIIEQDCCAyigAwIBAgIBATANBgkqhkiG9w0BAQQFADCBkzELMAkGA1UEBhMCR1Ix
DzANBgNVBAgMBkF0dGljYTEPMA0GA1UEBwwGQXRoZW5zMQ4wDAYDVQQKDAVVbmlw
aTEfMB0GA1UECwwWSW5mb3JtYXRpY3MgRGVwYXJ0bWVudDERMA8GA1UEAwwIVW5p
cGkgQ0ExHjAcBgkqhkiG9w0BCQEWD3AxNTA5NEB1bmlwaS5ncjAeFw0xODExMTcx
OTQyMTlaFw0xOTExMTcxOTQyMTlaMIGWMQswCQYDVQQGEwJHUjEPMA0GA1UECAwG
QXR0aWNhMQ8wDQYDVQQHDAZBdGhlbnMxDjAMBgNVBAoMBVVuaXBpMRgwFgYDVQQL
DA9MYWIgdGVzdCBjbGllbnQxFzAVBgNVBAMMDkNocnlzYSBCYXJiaW5pMSIwIAYJ
KoZIhvcNAQkBFhNjaHJ5c2EuYmFAZ21haWwuY29tMIGfMA0GCSqGSIb3DQEBAQUA
A4GNADCBiQKBgQCoPI1SOZd6mZhPlqxCDg6uZCJLBnB1Mn9ndeZ7LVvFtXS9K+Qc
pqMCa6beFwqSXMLlgptP0T6qCgNZ6glhiY/fOsBGHuOQ4w3TrSIVqI1PM7BKFnxa
2JwMv4q15BL0lxMxpos6D2wHwThuEE67fZVBmR4RULOVB+Z0tq1z3FqmVwIDAQAB
o4IBHDCCARgwHQYDVR0OBBYEFNn1waElSi0pR/Q1mrWdBlWBKgfFMIHIBgNVHSME
gcAwgb2AFMxkIsrrHkuL8MX3Smy1pgpI8unwoYGZpIGWMIGTMQswCQYDVQQGEwJH
UjEPMA0GA1UECAwGQXR0aWNhMQ8wDQYDVQQHDAZBdGhlbnMxDjAMBgNVBAoMBVVu
aXBpMR8wHQYDVQQLDBZJbmZvcm1hdGljcyBEZXBhcnRtZW50MREwDwYDVQQDDAhV
bmlwaSBDQTEeMBwGCSqGSIb3DQEJARYPcDE1MDk0QHVuaXBpLmdyggkAgiRu/KmO
NU8wDAYDVR0TBAUwAwEB/zALBgNVHQ8EBAMCAQYwEQYJYIZIAYb4QgEBBAQDAgEG
MA0GCSqGSIb3DQEBBAUAA4IBAQAbC4ihMzqx7cBY4c86vZ0AIF6w1Oeaq3STIHbX
MMT2pc90Sg+Yn97eywoBjP3W+lf1W8IN1fsjkUv2R+K8+cfu+5tApIDer/i2n9JL
CxhQ65A5kT6ULJGRcVoLiVcz79/DkQKH7vXOBGXXWiqikGBrDlnLNbBxRFh+omXY
TMb76SGQ3FPWId9NaMQa398QQ945ueiLirTWThB4h3u3ATt4op18lAAg/Q0J9Tqn
+j3PhlQJ5DU/OtvDMVeqHeblxSJNuZO7alI+iMKZdpDOa22IcnQd/iqF7KFO7guf
g/ju3hdBjQVXHV3oQASrp2dHW1D4MCXnP7NOWrOE2rTdSGfF
-----END CERTIFICATE-----
