Certificate:
    Data:
        Version: 3 (0x2)
        Serial Number: 0 (0x0)
    Signature Algorithm: md5WithRSAEncryption
        Issuer: C=GR, ST=Attica, L=Athens, O=Unipi, OU=Informatics Department, CN=Unipi CA/emailAddress=p15094@unipi.gr
        Validity
            Not Before: Nov 17 19:34:37 2018 GMT
            Not After : Nov 17 19:34:37 2019 GMT
        Subject: C=GR, ST=Attica, L=Athens, O=Unipi, OU=Informatics Department, CN=Unipi CA/emailAddress=p15094@unipi.gr
        Subject Public Key Info:
            Public Key Algorithm: rsaEncryption
                Public-Key: (2048 bit)
                Modulus:
                    00:a8:af:2e:24:e8:44:d2:d2:66:51:79:fa:10:31:
                    b3:90:57:9c:ce:68:c4:79:f0:47:07:52:b6:aa:bb:
                    67:8c:4d:6e:28:a3:25:ab:9c:c4:1a:67:cb:52:38:
                    09:c1:6d:17:a7:0a:8c:4f:6a:46:96:6a:a6:49:77:
                    63:a4:e4:0d:fb:3d:d9:9f:31:4f:0b:c3:b3:7a:50:
                    e9:9e:67:ed:ed:a0:f1:c5:0b:d1:3c:fa:e9:fc:81:
                    25:2b:d9:8b:e4:2f:8e:7e:3f:6d:5a:bc:2a:f6:5f:
                    b6:98:ef:d9:9a:b2:49:2f:c8:c5:17:3d:d4:db:71:
                    d3:17:60:46:19:be:23:88:c8:c2:64:98:8f:fd:be:
                    cb:b8:e1:7f:8b:e1:18:48:91:23:6e:aa:7c:a8:b1:
                    ca:34:a3:fe:f0:ae:19:1e:1a:41:26:09:10:54:af:
                    73:a9:bb:b8:1a:79:b2:21:cc:51:43:2f:c2:89:1a:
                    33:a3:1b:d6:57:32:c5:9e:d2:0c:0d:71:09:51:b6:
                    27:75:a3:27:f4:02:e1:3d:9f:ea:3c:ed:88:c6:24:
                    94:f2:ab:eb:34:35:08:58:37:d0:e0:3b:35:a6:f3:
                    ad:bb:f5:64:24:cf:00:d9:cb:92:e7:1a:60:7f:49:
                    39:bd:1f:92:10:f2:36:8b:39:ca:9d:e7:91:19:9a:
                    60:e7
                Exponent: 65537 (0x10001)
        X509v3 extensions:
            X509v3 Subject Key Identifier: 
                79:E0:E3:E9:DC:73:5C:17:F4:E0:75:2A:A9:CF:E4:19:89:A5:13:A4
            X509v3 Authority Key Identifier: 
                keyid:CC:64:22:CA:EB:1E:4B:8B:F0:C5:F7:4A:6C:B5:A6:0A:48:F2:E9:F0
                DirName:/C=GR/ST=Attica/L=Athens/O=Unipi/OU=Informatics Department/CN=Unipi CA/emailAddress=p15094@unipi.gr
                serial:82:24:6E:FC:A9:8E:35:4F

            X509v3 Basic Constraints: 
                CA:TRUE
            X509v3 Key Usage: 
                Certificate Sign, CRL Sign
            Netscape Cert Type: 
                SSL CA, S/MIME CA
    Signature Algorithm: md5WithRSAEncryption
         9d:52:15:92:f9:1b:16:64:fa:53:a9:7a:31:17:b2:d6:4c:8c:
         2f:e6:5d:93:7e:5c:5b:a5:f2:44:d5:76:02:50:c2:ad:59:85:
         c6:55:e8:47:cf:30:3a:94:fa:24:dd:f9:55:90:83:0a:83:0f:
         c1:8e:25:d4:6e:90:55:a0:b8:53:69:95:4a:af:eb:11:30:60:
         b0:5e:20:db:6f:b3:ba:44:ca:a7:c2:3d:f0:06:ce:de:1f:a8:
         54:52:84:34:52:58:56:19:9d:27:5e:ce:94:46:1a:96:e9:6b:
         78:ab:34:14:06:41:98:1a:b6:34:50:0e:20:8d:41:5a:9a:ac:
         6d:55:9a:5c:83:b8:f5:07:71:f5:03:c8:1c:82:5d:94:f2:47:
         28:18:05:53:94:61:f8:c7:1e:c6:b3:66:30:c4:8a:6e:45:e8:
         eb:86:14:a9:de:ff:bb:7b:7e:35:b5:9a:5d:df:f3:e2:8f:2a:
         e9:7e:6a:7b:b5:2b:1b:1d:a5:9e:2e:7c:60:a9:52:1e:22:bb:
         59:b7:cb:9f:99:08:f1:1a:ff:be:ec:f2:31:fa:35:51:e7:42:
         1f:fe:5a:69:60:10:6b:98:9b:17:ab:43:43:e9:19:63:e8:ac:
         b6:fc:63:05:42:50:4c:50:39:06:d5:01:22:17:d5:73:1f:24:
         b0:8f:45:2c
-----BEGIN CERTIFICATE-----
MIIEwTCCA6mgAwIBAgIBADANBgkqhkiG9w0BAQQFADCBkzELMAkGA1UEBhMCR1Ix
DzANBgNVBAgMBkF0dGljYTEPMA0GA1UEBwwGQXRoZW5zMQ4wDAYDVQQKDAVVbmlw
aTEfMB0GA1UECwwWSW5mb3JtYXRpY3MgRGVwYXJ0bWVudDERMA8GA1UEAwwIVW5p
cGkgQ0ExHjAcBgkqhkiG9w0BCQEWD3AxNTA5NEB1bmlwaS5ncjAeFw0xODExMTcx
OTM0MzdaFw0xOTExMTcxOTM0MzdaMIGTMQswCQYDVQQGEwJHUjEPMA0GA1UECAwG
QXR0aWNhMQ8wDQYDVQQHDAZBdGhlbnMxDjAMBgNVBAoMBVVuaXBpMR8wHQYDVQQL
DBZJbmZvcm1hdGljcyBEZXBhcnRtZW50MREwDwYDVQQDDAhVbmlwaSBDQTEeMBwG
CSqGSIb3DQEJARYPcDE1MDk0QHVuaXBpLmdyMIIBIjANBgkqhkiG9w0BAQEFAAOC
AQ8AMIIBCgKCAQEAqK8uJOhE0tJmUXn6EDGzkFeczmjEefBHB1K2qrtnjE1uKKMl
q5zEGmfLUjgJwW0XpwqMT2pGlmqmSXdjpOQN+z3ZnzFPC8OzelDpnmft7aDxxQvR
PPrp/IElK9mL5C+Ofj9tWrwq9l+2mO/ZmrJJL8jFFz3U23HTF2BGGb4jiMjCZJiP
/b7LuOF/i+EYSJEjbqp8qLHKNKP+8K4ZHhpBJgkQVK9zqbu4GnmyIcxRQy/CiRoz
oxvWVzLFntIMDXEJUbYndaMn9ALhPZ/qPO2IxiSU8qvrNDUIWDfQ4Ds1pvOtu/Vk
JM8A2cuS5xpgf0k5vR+SEPI2iznKneeRGZpg5wIDAQABo4IBHDCCARgwHQYDVR0O
BBYEFHng4+ncc1wX9OB1KqnP5BmJpROkMIHIBgNVHSMEgcAwgb2AFMxkIsrrHkuL
8MX3Smy1pgpI8unwoYGZpIGWMIGTMQswCQYDVQQGEwJHUjEPMA0GA1UECAwGQXR0
aWNhMQ8wDQYDVQQHDAZBdGhlbnMxDjAMBgNVBAoMBVVuaXBpMR8wHQYDVQQLDBZJ
bmZvcm1hdGljcyBEZXBhcnRtZW50MREwDwYDVQQDDAhVbmlwaSBDQTEeMBwGCSqG
SIb3DQEJARYPcDE1MDk0QHVuaXBpLmdyggkAgiRu/KmONU8wDAYDVR0TBAUwAwEB
/zALBgNVHQ8EBAMCAQYwEQYJYIZIAYb4QgEBBAQDAgEGMA0GCSqGSIb3DQEBBAUA
A4IBAQCdUhWS+RsWZPpTqXoxF7LWTIwv5l2TflxbpfJE1XYCUMKtWYXGVehHzzA6
lPok3flVkIMKgw/BjiXUbpBVoLhTaZVKr+sRMGCwXiDbb7O6RMqnwj3wBs7eH6hU
UoQ0UlhWGZ0nXs6URhqW6Wt4qzQUBkGYGrY0UA4gjUFamqxtVZpcg7j1B3H1A8gc
gl2U8kcoGAVTlGH4xx7Gs2YwxIpuRejrhhSp3v+7e341tZpd3/Pijyrpfmp7tSsb
HaWeLnxgqVIeIrtZt8ufmQjxGv++7PIx+jVR50If/lppYBBrmJsXq0ND6Rlj6Ky2
/GMFQlBMUDkG1QEiF9VzHySwj0Us
-----END CERTIFICATE-----
